target datalayout = "e-m:e-p270:32:32-p271:32:32-p272:64:64-i64:64-i128:128-f80:128-n8:16:32:64-S128"
target triple = "x86_64-pc-linux-gnu"

%struct.H266DpbParameters = type { [7 x i8], [7 x i8], [7 x i8] }

@.str.730 = private unnamed_addr constant [36 x i8] c"dpb_max_dec_pic_buffering_minus1[i]\00", align 1
@.str.731 = private unnamed_addr constant [28 x i8] c"dpb_max_num_reorder_pics[i]\00", align 1
@.str.732 = private unnamed_addr constant [34 x i8] c"dpb_max_latency_increase_plus1[i]\00", align 1

; Function Attrs: nounwind uwtable
define internal i32 @cbs_h266_read_dpb_parameters(ptr noundef %0, ptr noundef %1, ptr noundef %2, i8 noundef zeroext %3, i8 noundef zeroext %4) #0 {
  %6 = alloca i32, align 4
  %7 = alloca ptr, align 8
  %8 = alloca ptr, align 8
  %9 = alloca ptr, align 8
  %10 = alloca i8, align 1
  %11 = alloca i8, align 1
  %12 = alloca i32, align 4
  %13 = alloca i32, align 4
  %14 = alloca i32, align 4
  %15 = alloca [2 x i32], align 4
  %16 = alloca i32, align 4
  %17 = alloca i32, align 4
  %18 = alloca [2 x i32], align 4
  %19 = alloca i32, align 4
  %20 = alloca [2 x i32], align 4
  store ptr %0, ptr %7, align 8, !tbaa !4
  store ptr %1, ptr %8, align 8, !tbaa !196
  store ptr %2, ptr %9, align 8, !tbaa !1438
  store i8 %3, ptr %10, align 1, !tbaa !32
  store i8 %4, ptr %11, align 1, !tbaa !32
  call void @llvm.lifetime.start.p0(i64 4, ptr %12) #11
  call void @llvm.lifetime.start.p0(i64 4, ptr %13) #11
  %21 = load i8, ptr %11, align 1, !tbaa !32
  %22 = zext i8 %21 to i32
  %23 = icmp ne i32 %22, 0
  br i1 %23, label %24, label %25

24:                                               ; preds = %5
  br label %28

25:                                               ; preds = %5
  %26 = load i8, ptr %10, align 1, !tbaa !32
  %27 = zext i8 %26 to i32
  br label %28

28:                                               ; preds = %25, %24
  %29 = phi i32 [ 0, %24 ], [ %27, %25 ]
  store i32 %29, ptr %13, align 4, !tbaa !11
  br label %30

30:                                               ; preds = %124, %28
  %31 = load i32, ptr %13, align 4, !tbaa !11
  %32 = load i8, ptr %10, align 1, !tbaa !32
  %33 = zext i8 %32 to i32
  %34 = icmp sle i32 %31, %33
  br i1 %34, label %35, label %127

35:                                               ; preds = %30
  br label %36

36:                                               ; preds = %35
  call void @llvm.lifetime.start.p0(i64 4, ptr %14) #11
  br label %37

37:                                               ; preds = %36
  %38 = load ptr, ptr %7, align 8, !tbaa !4
  %39 = load ptr, ptr %8, align 8, !tbaa !196
  store i32 1, ptr %15, align 4, !tbaa !11
  %40 = getelementptr inbounds i32, ptr %15, i64 1
  %41 = load i32, ptr %13, align 4, !tbaa !11
  store i32 %41, ptr %40, align 4, !tbaa !11
  %42 = getelementptr inbounds [2 x i32], ptr %15, i64 0, i64 0
  %43 = call i32 @cbs_read_ue_golomb(ptr noundef %38, ptr noundef %39, ptr noundef @.str.730, ptr noundef %42, ptr noundef %14, i32 noundef 0, i32 noundef 15)
  store i32 %43, ptr %12, align 4, !tbaa !11
  %44 = load i32, ptr %12, align 4, !tbaa !11
  %45 = icmp slt i32 %44, 0
  br i1 %45, label %46, label %48

46:                                               ; preds = %37
  %47 = load i32, ptr %12, align 4, !tbaa !11
  store i32 %47, ptr %6, align 4
  store i32 1, ptr %16, align 4
  br label %58

48:                                               ; preds = %37
  br label %49

49:                                               ; preds = %48
  br label %50

50:                                               ; preds = %49
  %51 = load i32, ptr %14, align 4, !tbaa !11
  %52 = trunc i32 %51 to i8
  %53 = load ptr, ptr %9, align 8, !tbaa !1438
  %54 = getelementptr inbounds nuw %struct.H266DpbParameters, ptr %53, i32 0, i32 0
  %55 = load i32, ptr %13, align 4, !tbaa !11
  %56 = sext i32 %55 to i64
  %57 = getelementptr inbounds [7 x i8], ptr %54, i64 0, i64 %56
  store i8 %52, ptr %57, align 1, !tbaa !32
  store i32 0, ptr %16, align 4
  br label %58

58:                                               ; preds = %50, %46
  call void @llvm.lifetime.end.p0(i64 4, ptr %14) #11
  %59 = load i32, ptr %16, align 4
  switch i32 %59, label %128 [
    i32 0, label %60
  ]

60:                                               ; preds = %58
  br label %61

61:                                               ; preds = %60
  br label %62

62:                                               ; preds = %61
  br label %63

63:                                               ; preds = %62
  call void @llvm.lifetime.start.p0(i64 4, ptr %17) #11
  br label %64

64:                                               ; preds = %63
  %65 = load ptr, ptr %7, align 8, !tbaa !4
  %66 = load ptr, ptr %8, align 8, !tbaa !196
  store i32 1, ptr %18, align 4, !tbaa !11
  %67 = getelementptr inbounds i32, ptr %18, i64 1
  %68 = load i32, ptr %13, align 4, !tbaa !11
  store i32 %68, ptr %67, align 4, !tbaa !11
  %69 = getelementptr inbounds [2 x i32], ptr %18, i64 0, i64 0
  %70 = load ptr, ptr %9, align 8, !tbaa !1438
  %71 = getelementptr inbounds nuw %struct.H266DpbParameters, ptr %70, i32 0, i32 0
  %72 = load i32, ptr %13, align 4, !tbaa !11
  %73 = sext i32 %72 to i64
  %74 = getelementptr inbounds [7 x i8], ptr %71, i64 0, i64 %73
  %75 = load i8, ptr %74, align 1, !tbaa !32
  %76 = zext i8 %75 to i32
  %77 = call i32 @cbs_read_ue_golomb(ptr noundef %65, ptr noundef %66, ptr noundef @.str.731, ptr noundef %69, ptr noundef %17, i32 noundef 0, i32 noundef %76)
  store i32 %77, ptr %12, align 4, !tbaa !11
  %78 = load i32, ptr %12, align 4, !tbaa !11
  %79 = icmp slt i32 %78, 0
  br i1 %79, label %80, label %82

80:                                               ; preds = %64
  %81 = load i32, ptr %12, align 4, !tbaa !11
  store i32 %81, ptr %6, align 4
  store i32 1, ptr %16, align 4
  br label %92

82:                                               ; preds = %64
  br label %83

83:                                               ; preds = %82
  br label %84

84:                                               ; preds = %83
  %85 = load i32, ptr %17, align 4, !tbaa !11
  %86 = trunc i32 %85 to i8
  %87 = load ptr, ptr %9, align 8, !tbaa !1438
  %88 = getelementptr inbounds nuw %struct.H266DpbParameters, ptr %87, i32 0, i32 1
  %89 = load i32, ptr %13, align 4, !tbaa !11
  %90 = sext i32 %89 to i64
  %91 = getelementptr inbounds [7 x i8], ptr %88, i64 0, i64 %90
  store i8 %86, ptr %91, align 1, !tbaa !32
  store i32 0, ptr %16, align 4
  br label %92

92:                                               ; preds = %84, %80
  call void @llvm.lifetime.end.p0(i64 4, ptr %17) #11
  %93 = load i32, ptr %16, align 4
  switch i32 %93, label %128 [
    i32 0, label %94
  ]

94:                                               ; preds = %92
  br label %95

95:                                               ; preds = %94
  br label %96

96:                                               ; preds = %95
  br label %97

97:                                               ; preds = %96
  call void @llvm.lifetime.start.p0(i64 4, ptr %19) #11
  br label %98

98:                                               ; preds = %97
  %99 = load ptr, ptr %7, align 8, !tbaa !4
  %100 = load ptr, ptr %8, align 8, !tbaa !196
  store i32 1, ptr %20, align 4, !tbaa !11
  %101 = getelementptr inbounds i32, ptr %20, i64 1
  %102 = load i32, ptr %13, align 4, !tbaa !11
  store i32 %102, ptr %101, align 4, !tbaa !11
  %103 = getelementptr inbounds [2 x i32], ptr %20, i64 0, i64 0
  %104 = call i32 @cbs_read_ue_golomb(ptr noundef %99, ptr noundef %100, ptr noundef @.str.732, ptr noundef %103, ptr noundef %19, i32 noundef 0, i32 noundef -2)
  store i32 %104, ptr %12, align 4, !tbaa !11
  %105 = load i32, ptr %12, align 4, !tbaa !11
  %106 = icmp slt i32 %105, 0
  br i1 %106, label %107, label %109

107:                                              ; preds = %98
  %108 = load i32, ptr %12, align 4, !tbaa !11
  store i32 %108, ptr %6, align 4
  store i32 1, ptr %16, align 4
  br label %119

109:                                              ; preds = %98
  br label %110

110:                                              ; preds = %109
  br label %111

111:                                              ; preds = %110
  %112 = load i32, ptr %19, align 4, !tbaa !11
  %113 = trunc i32 %112 to i8
  %114 = load ptr, ptr %9, align 8, !tbaa !1438
  %115 = getelementptr inbounds nuw %struct.H266DpbParameters, ptr %114, i32 0, i32 2
  %116 = load i32, ptr %13, align 4, !tbaa !11
  %117 = sext i32 %116 to i64
  %118 = getelementptr inbounds [7 x i8], ptr %115, i64 0, i64 %117
  store i8 %113, ptr %118, align 1, !tbaa !32
  store i32 0, ptr %16, align 4
  br label %119

119:                                              ; preds = %111, %107
  call void @llvm.lifetime.end.p0(i64 4, ptr %19) #11
  %120 = load i32, ptr %16, align 4
  switch i32 %120, label %128 [
    i32 0, label %121
  ]

121:                                              ; preds = %119
  br label %122

122:                                              ; preds = %121
  br label %123

123:                                              ; preds = %122
  br label %124

124:                                              ; preds = %123
  %125 = load i32, ptr %13, align 4, !tbaa !11
  %126 = add nsw i32 %125, 1
  store i32 %126, ptr %13, align 4, !tbaa !11
  br label %30, !llvm.loop !1440

127:                                              ; preds = %30
  store i32 0, ptr %6, align 4
  store i32 1, ptr %16, align 4
  br label %128

128:                                              ; preds = %127, %119, %92, %58
  call void @llvm.lifetime.end.p0(i64 4, ptr %13) #11
  call void @llvm.lifetime.end.p0(i64 4, ptr %12) #11
  %129 = load i32, ptr %6, align 4
  ret i32 %129
}