; Function Attrs: nounwind uwtable
define internal fastcc range(i32 -1094995529, 1) i32 @cbs_h266_read_dpb_parameters(ptr noundef readonly captures(none) %0, ptr noundef nonnull captures(none) %1, ptr noundef writeonly captures(none) %2, i8 noundef zeroext %3, i8 noundef zeroext %4) unnamed_addr #0 {
  %6 = alloca i32, align 4
  %7 = alloca [2 x i32], align 4
  %8 = alloca i32, align 4
  %9 = alloca [2 x i32], align 4
  %10 = alloca i32, align 4
  %11 = alloca [2 x i32], align 4
  %.not = icmp eq i8 %4, 0
  %12 = zext i8 %3 to i64
  %13 = getelementptr inbounds nuw i8, ptr %7, i64 4
  %14 = getelementptr inbounds nuw i8, ptr %9, i64 4
  %15 = getelementptr inbounds nuw i8, ptr %2, i64 7
  %16 = getelementptr inbounds nuw i8, ptr %11, i64 4
  %17 = getelementptr inbounds nuw i8, ptr %2, i64 14
  %narrow = select i1 %.not, i8 %3, i8 0
  %18 = zext i8 %narrow to i64
  br label %19

19:                                               ; preds = %5, %39
  %indvars.iv = phi i64 [ %18, %5 ], [ %indvars.iv.next, %39 ]
  call void @llvm.lifetime.start.p0(i64 4, ptr nonnull %6) #11
  store i32 1, ptr %7, align 4, !tbaa !63
  %20 = trunc nuw nsw i64 %indvars.iv to i32
  store i32 %20, ptr %13, align 4, !tbaa !63
  %21 = call fastcc i32 @cbs_read_ue_golomb(ptr noundef %0, ptr noundef nonnull %1, ptr noundef nonnull @.str.730, ptr noundef nonnull %7, ptr noundef %6, i32 noundef 0, i32 noundef 15)
  %22 = icmp sgt i32 %21, -1
  br i1 %22, label %24, label %23

23:                                               ; preds = %19
  call void @llvm.lifetime.end.p0(i64 4, ptr nonnull %6) #11
  br label %.loopexit

24:                                               ; preds = %19
  %25 = load i32, ptr %6, align 4, !tbaa !63
  %26 = trunc i32 %25 to i8
  %27 = getelementptr inbounds nuw [7 x i8], ptr %2, i64 0, i64 %indvars.iv
  store i8 %26, ptr %27, align 1, !tbaa !25
  call void @llvm.lifetime.end.p0(i64 4, ptr nonnull %6) #11
  call void @llvm.lifetime.start.p0(i64 4, ptr nonnull %8) #11
  store i32 1, ptr %9, align 4, !tbaa !63
  store i32 %20, ptr %14, align 4, !tbaa !63
  %28 = and i32 %25, 255
  %29 = call fastcc i32 @cbs_read_ue_golomb(ptr noundef %0, ptr noundef nonnull %1, ptr noundef nonnull @.str.731, ptr noundef nonnull %9, ptr noundef %8, i32 noundef 0, i32 noundef %28)
  %30 = icmp sgt i32 %29, -1
  br i1 %30, label %32, label %31

31:                                               ; preds = %24
  call void @llvm.lifetime.end.p0(i64 4, ptr nonnull %8) #11
  br label %.loopexit

32:                                               ; preds = %24
  %33 = load i32, ptr %8, align 4, !tbaa !63
  %34 = trunc i32 %33 to i8
  %35 = getelementptr inbounds nuw [7 x i8], ptr %15, i64 0, i64 %indvars.iv
  store i8 %34, ptr %35, align 1, !tbaa !25
  call void @llvm.lifetime.end.p0(i64 4, ptr nonnull %8) #11
  call void @llvm.lifetime.start.p0(i64 4, ptr nonnull %10) #11
  store i32 1, ptr %11, align 4, !tbaa !63
  store i32 %20, ptr %16, align 4, !tbaa !63
  %36 = call fastcc i32 @cbs_read_ue_golomb(ptr noundef %0, ptr noundef nonnull %1, ptr noundef nonnull @.str.732, ptr noundef nonnull %11, ptr noundef %10, i32 noundef 0, i32 noundef -2)
  %37 = icmp sgt i32 %36, -1
  br i1 %37, label %39, label %38

38:                                               ; preds = %32
  call void @llvm.lifetime.end.p0(i64 4, ptr nonnull %10) #11
  br label %.loopexit

39:                                               ; preds = %32
  %40 = load i32, ptr %10, align 4, !tbaa !63
  %41 = trunc i32 %40 to i8
  %42 = getelementptr inbounds nuw [7 x i8], ptr %17, i64 0, i64 %indvars.iv
  store i8 %41, ptr %42, align 1, !tbaa !25
  call void @llvm.lifetime.end.p0(i64 4, ptr nonnull %10) #11
  %indvars.iv.next = add nuw nsw i64 %indvars.iv, 1
  %exitcond.not = icmp eq i64 %indvars.iv, %12
  br i1 %exitcond.not, label %.loopexit, label %19, !llvm.loop !1451

.loopexit:                                        ; preds = %39, %38, %31, %23
  %.236 = phi i32 [ %36, %38 ], [ %29, %31 ], [ %21, %23 ], [ 0, %39 ]
  ret i32 %.236
}